	.file	"unroll-prev-7.cpp"
# GNU C++11 (Ubuntu 5.5.0-12ubuntu1) version 5.5.0 20171010 (x86_64-linux-gnu)
#	compiled by GNU C version 5.5.0 20171010, GMP version 6.1.2, MPFR version 4.0.1, MPC version 1.1.0
# GGC heuristics: --param ggc-min-expand=100 --param ggc-min-heapsize=131072
# options passed:  -imultiarch x86_64-linux-gnu -D_GNU_SOURCE
# unroll-prev-7.cpp -mtune=generic -march=x86-64 -auxbase-strip unroll.s -g
# -O2 -std=c++11 -fverbose-asm -fstack-protector-strong -Wformat
# -Wformat-security
# options enabled:  -fPIC -fPIE -faggressive-loop-optimizations
# -falign-labels -fasynchronous-unwind-tables -fauto-inc-dec
# -fbranch-count-reg -fcaller-saves -fchkp-check-incomplete-type
# -fchkp-check-read -fchkp-check-write -fchkp-instrument-calls
# -fchkp-narrow-bounds -fchkp-optimize -fchkp-store-bounds
# -fchkp-use-static-bounds -fchkp-use-static-const-bounds
# -fchkp-use-wrappers -fcombine-stack-adjustments -fcommon -fcompare-elim
# -fcprop-registers -fcrossjumping -fcse-follow-jumps -fdefer-pop
# -fdelete-null-pointer-checks -fdevirtualize -fdevirtualize-speculatively
# -fdwarf2-cfi-asm -fearly-inlining -feliminate-unused-debug-types
# -fexceptions -fexpensive-optimizations -fforward-propagate -ffunction-cse
# -fgcse -fgcse-lm -fgnu-runtime -fgnu-unique -fguess-branch-probability
# -fhoist-adjacent-loads -fident -fif-conversion -fif-conversion2
# -findirect-inlining -finline -finline-atomics
# -finline-functions-called-once -finline-small-functions -fipa-cp
# -fipa-cp-alignment -fipa-icf -fipa-icf-functions -fipa-icf-variables
# -fipa-profile -fipa-pure-const -fipa-ra -fipa-reference -fipa-sra
# -fira-hoist-pressure -fira-share-save-slots -fira-share-spill-slots
# -fisolate-erroneous-paths-dereference -fivopts -fkeep-static-consts
# -fleading-underscore -flifetime-dse -flra-remat -flto-odr-type-merging
# -fmath-errno -fmerge-constants -fmerge-debug-strings
# -fmove-loop-invariants -fomit-frame-pointer -foptimize-sibling-calls
# -foptimize-strlen -fpartial-inlining -fpeephole -fpeephole2
# -fprefetch-loop-arrays -free -freg-struct-return -freorder-blocks
# -freorder-blocks-and-partition -freorder-functions -frerun-cse-after-loop
# -fsched-critical-path-heuristic -fsched-dep-count-heuristic
# -fsched-group-heuristic -fsched-interblock -fsched-last-insn-heuristic
# -fsched-rank-heuristic -fsched-spec -fsched-spec-insn-heuristic
# -fsched-stalled-insns-dep -fschedule-fusion -fschedule-insns2
# -fsemantic-interposition -fshow-column -fshrink-wrap -fsigned-zeros
# -fsplit-ivs-in-unroller -fsplit-wide-types -fssa-phiopt
# -fstack-protector-strong -fstdarg-opt -fstrict-aliasing -fstrict-overflow
# -fstrict-volatile-bitfields -fsync-libcalls -fthread-jumps
# -ftoplevel-reorder -ftrapping-math -ftree-bit-ccp -ftree-builtin-call-dce
# -ftree-ccp -ftree-ch -ftree-coalesce-vars -ftree-copy-prop
# -ftree-copyrename -ftree-cselim -ftree-dce -ftree-dominator-opts
# -ftree-dse -ftree-forwprop -ftree-fre -ftree-loop-if-convert
# -ftree-loop-im -ftree-loop-ivcanon -ftree-loop-optimize
# -ftree-parallelize-loops= -ftree-phiprop -ftree-pre -ftree-pta
# -ftree-reassoc -ftree-scev-cprop -ftree-sink -ftree-slsr -ftree-sra
# -ftree-switch-conversion -ftree-tail-merge -ftree-ter -ftree-vrp
# -funit-at-a-time -funwind-tables -fvar-tracking
# -fvar-tracking-assignments -fverbose-asm -fzero-initialized-in-bss
# -m128bit-long-double -m64 -m80387 -malign-stringops
# -mavx256-split-unaligned-load -mavx256-split-unaligned-store
# -mfancy-math-387 -mfp-ret-in-387 -mfxsr -mglibc -mieee-fp
# -mlong-double-80 -mmmx -mno-sse4 -mpush-args -mred-zone -msse -msse2
# -mtls-direct-seg-refs -mvzeroupper

	.text
.Ltext0:
	.section	.text.unlikely,"ax",@progbits
.LCOLDB1:
	.text
.LHOTB1:
	.p2align 4,,15
	.section	.text.unlikely
.Ltext_cold0:
	.text
	.globl	_Z8getFloatv
	.type	_Z8getFloatv, @function
_Z8getFloatv:
.LFB309:
	.file 1 "unroll-prev-7.cpp"
	.loc 1 22 0
	.cfi_startproc
	subq	$8, %rsp	#,
	.cfi_def_cfa_offset 16
	.loc 1 23 0
	call	rand@PLT	#
.LVL0:
	pxor	%xmm0, %xmm0	# D.10916
	cvtsi2ss	%eax, %xmm0	# D.10915, D.10916
	mulss	.LC0(%rip), %xmm0	#, D.10916
	.loc 1 24 0
	addq	$8, %rsp	#,
	.cfi_def_cfa_offset 8
	ret
	.cfi_endproc
.LFE309:
	.size	_Z8getFloatv, .-_Z8getFloatv
	.section	.text.unlikely
.LCOLDE1:
	.text
.LHOTE1:
	.section	.text.unlikely
.LCOLDB2:
	.text
.LHOTB2:
	.p2align 4,,15
	.globl	_Z10initializev
	.type	_Z10initializev, @function
_Z10initializev:
.LFB310:
	.loc 1 27 0
	.cfi_startproc
.LVL1:
	pushq	%r12	#
	.cfi_def_cfa_offset 16
	.cfi_offset 12, -16
	pushq	%rbp	#
	.cfi_def_cfa_offset 24
	.cfi_offset 6, -24
	pushq	%rbx	#
	.cfi_def_cfa_offset 32
	.cfi_offset 3, -32
	leaq	A(%rip), %rbx	#, ivtmp.72
	leaq	16800000(%rbx), %r12	#, D.10957
.LVL2:
	.p2align 4,,10
	.p2align 3
.L5:
	leaq	8000(%rbx), %rbp	#, D.10957
.LVL3:
	.p2align 4,,10
	.p2align 3
.L4:
.LBB87:
.LBB88:
	.loc 1 23 0
	call	rand@PLT	#
.LVL4:
.LBE88:
.LBE87:
	.loc 1 31 0
	pxor	%xmm0, %xmm0	# D.10956
	addq	$4, %rbx	#, ivtmp.72
	cvtsi2ss	%eax, %xmm0	# D.10955, D.10956
	mulss	.LC0(%rip), %xmm0	#, D.10956
	movss	%xmm0, -4(%rbx)	# D.10956, MEM[base: _19, offset: 0B]
	.loc 1 30 0
	cmpq	%rbp, %rbx	# D.10957, ivtmp.72
	jne	.L4	#,
	.loc 1 29 0 discriminator 2
	cmpq	%rbx, %r12	# ivtmp.72, D.10957
	jne	.L5	#,
	leaq	B(%rip), %rbx	#, ivtmp.55
	leaq	12800000+B(%rip), %r12	#, D.10957
	.p2align 4,,10
	.p2align 3
.L7:
.LVL5:
	leaq	6400(%rbx), %rbp	#, D.10957
.LVL6:
	.p2align 4,,10
	.p2align 3
.L6:
.LBB89:
.LBB90:
	.loc 1 23 0
	call	rand@PLT	#
.LVL7:
.LBE90:
.LBE89:
	.loc 1 37 0
	pxor	%xmm0, %xmm0	# D.10956
	addq	$4, %rbx	#, ivtmp.55
	cvtsi2ss	%eax, %xmm0	# D.10955, D.10956
	mulss	.LC0(%rip), %xmm0	#, D.10956
	movss	%xmm0, -4(%rbx)	# D.10956, MEM[base: _6, offset: 0B]
	.loc 1 36 0
	cmpq	%rbp, %rbx	# D.10957, ivtmp.55
	jne	.L6	#,
	.loc 1 35 0 discriminator 2
	cmpq	%rbx, %r12	# ivtmp.55, D.10957
	jne	.L7	#,
	.loc 1 40 0
	popq	%rbx	#
	.cfi_def_cfa_offset 24
	popq	%rbp	#
	.cfi_def_cfa_offset 16
	popq	%r12	#
	.cfi_def_cfa_offset 8
	ret
	.cfi_endproc
.LFE310:
	.size	_Z10initializev, .-_Z10initializev
	.section	.text.unlikely
.LCOLDE2:
	.text
.LHOTE2:
	.section	.rodata.str1.8,"aMS",@progbits,1
	.align 8
.LC3:
	.string	"Require 2 parameters, but it gets %d.\n"
	.align 8
.LC4:
	.string	"Index is out of the matrix size\n"
	.section	.rodata.str1.1,"aMS",@progbits,1
.LC5:
	.string	"%2f\n"
.LC7:
	.string	"Timer: \n%2f\n"
	.section	.text.unlikely
.LCOLDB8:
	.section	.text.startup,"ax",@progbits
.LHOTB8:
	.p2align 4,,15
	.globl	main
	.type	main, @function
main:
.LFB311:
	.loc 1 43 0
	.cfi_startproc
.LVL8:
	pushq	%r12	#
	.cfi_def_cfa_offset 16
	.cfi_offset 12, -16
	pushq	%rbp	#
	.cfi_def_cfa_offset 24
	.cfi_offset 6, -24
	pushq	%rbx	#
	.cfi_def_cfa_offset 32
	.cfi_offset 3, -32
	subq	$16, %rsp	#,
	.cfi_def_cfa_offset 48
	.loc 1 44 0
	cmpl	$3, %edi	#, argc
	jne	.L26	#,
.LBB91:
.LBB92:
	.file 2 "/usr/include/stdlib.h"
	.loc 2 363 0
	movq	8(%rsi), %rdi	# MEM[(char * *)argv_8(D) + 8B], MEM[(char * *)argv_8(D) + 8B]
.LVL9:
	movq	%rsi, %rbx	# argv, argv
.LVL10:
	movl	$10, %edx	#,
	xorl	%esi, %esi	#
.LVL11:
	call	strtol@PLT	#
.LVL12:
.LBE92:
.LBE91:
.LBB94:
.LBB95:
	movq	16(%rbx), %rdi	# MEM[(char * *)argv_8(D) + 16B], MEM[(char * *)argv_8(D) + 16B]
.LBE95:
.LBE94:
.LBB98:
.LBB93:
	movq	%rax, %rbp	#, D.11012
.LVL13:
.LBE93:
.LBE98:
.LBB99:
.LBB96:
	xorl	%esi, %esi	#
	movl	$10, %edx	#,
	call	strtol@PLT	#
.LVL14:
.LBE96:
.LBE99:
	.loc 1 52 0
	cmpl	$2099, %ebp	#, D.11012
.LBB100:
.LBB97:
	.loc 2 363 0
	movq	%rax, %rbx	#, D.11012
.LVL15:
.LBE97:
.LBE100:
	.loc 1 52 0
	jg	.L21	#,
	cmpl	$1599, %eax	#, D.11012
	jg	.L21	#,
	.loc 1 57 0
	xorl	%edi, %edi	#
	call	time@PLT	#
.LVL16:
	movl	%eax, %edi	# D.11012,
	call	srand@PLT	#
.LVL17:
	.loc 1 58 0
	call	_Z10initializev	#
.LVL18:
	.loc 1 59 0
	call	_ZNSt6chrono3_V212system_clock3nowEv@PLT	#
.LVL19:
	leaq	6400+C(%rip), %r9	#, ivtmp.123
	leaq	28+A(%rip), %r8	#, ivtmp.126
	leaq	13446400+C(%rip), %r10	#, D.11017
	movq	%rax, %r12	#, start
.LVL20:
.L20:
	leaq	-6400(%r9), %rdi	#, ivtmp.98
	leaq	44800+B(%rip), %rsi	#, ivtmp.107
	movss	-28(%r8), %xmm8	# MEM[base: _161, offset: -28B], D.11014
	movss	-24(%r8), %xmm7	# MEM[base: _161, offset: -24B], D.11014
	movss	-20(%r8), %xmm6	# MEM[base: _161, offset: -20B], D.11014
	movss	-16(%r8), %xmm5	# MEM[base: _161, offset: -16B], D.11014
	movss	-12(%r8), %xmm4	# MEM[base: _161, offset: -12B], D.11014
	movss	-8(%r8), %xmm3	# MEM[base: _161, offset: -8B], D.11014
	movss	-4(%r8), %xmm2	# MEM[base: _161, offset: -4B], D.11014
.LVL21:
	.p2align 4,,10
	.p2align 3
.L19:
	.loc 1 71 0
	movss	-44800(%rsi), %xmm1	# MEM[base: _150, offset: -44800B], D.11014
	leaq	12755200(%rsi), %rcx	#, D.11017
	movq	%rsi, %rax	# ivtmp.107, ivtmp.89
	mulss	%xmm8, %xmm1	# D.11014, D.11014
	movss	-38400(%rsi), %xmm0	# MEM[base: _150, offset: -38400B], D.11014
	mulss	%xmm7, %xmm0	# D.11014, D.11014
	movq	%r8, %rdx	# ivtmp.126, ivtmp.86
	addss	(%rdi), %xmm1	# MEM[base: _151, offset: 0B], D.11014
	addss	%xmm0, %xmm1	# D.11014, D.11014
	movss	-32000(%rsi), %xmm0	# MEM[base: _150, offset: -32000B], D.11014
	mulss	%xmm6, %xmm0	# D.11014, D.11014
	addss	%xmm0, %xmm1	# D.11014, D.11014
	movss	-25600(%rsi), %xmm0	# MEM[base: _150, offset: -25600B], D.11014
	mulss	%xmm5, %xmm0	# D.11014, D.11014
	addss	%xmm0, %xmm1	# D.11014, D.11014
	movss	-19200(%rsi), %xmm0	# MEM[base: _150, offset: -19200B], D.11014
	mulss	%xmm4, %xmm0	# D.11014, D.11014
	addss	%xmm0, %xmm1	# D.11014, D.11014
	movss	-12800(%rsi), %xmm0	# MEM[base: _150, offset: -12800B], D.11014
	mulss	%xmm3, %xmm0	# D.11014, D.11014
	addss	%xmm0, %xmm1	# D.11014, D.11014
	movss	-6400(%rsi), %xmm0	# MEM[base: _150, offset: -6400B], D.11014
	mulss	%xmm2, %xmm0	# D.11014, D.11014
	addss	%xmm0, %xmm1	# D.11014, D.11014
.LVL22:
	.p2align 4,,10
	.p2align 3
.L18:
	.loc 1 73 0 discriminator 2
	movss	(%rdx), %xmm0	# MEM[base: _164, offset: 0B], MEM[base: _164, offset: 0B]
	addq	$6400, %rax	#, ivtmp.89
	addq	$4, %rdx	#, ivtmp.86
	mulss	-6400(%rax), %xmm0	# MEM[base: _163, offset: 0B], D.11014
	.loc 1 72 0 discriminator 2
	cmpq	%rax, %rcx	# ivtmp.89, D.11017
	.loc 1 73 0 discriminator 2
	addss	%xmm0, %xmm1	# D.11014, D.11014
	.loc 1 72 0 discriminator 2
	jne	.L18	#,
	movss	%xmm1, (%rdi)	# D.11014, MEM[base: _151, offset: 0B]
	addq	$4, %rdi	#, ivtmp.98
	addq	$4, %rsi	#, ivtmp.107
	.loc 1 64 0 discriminator 2
	cmpq	%rdi, %r9	# ivtmp.98, ivtmp.123
	jne	.L19	#,
	addq	$6400, %r9	#, ivtmp.123
	addq	$8000, %r8	#, ivtmp.126
	.loc 1 63 0 discriminator 2
	cmpq	%r9, %r10	# ivtmp.123, D.11017
	jne	.L20	#,
	.loc 1 78 0
	call	_ZNSt6chrono3_V212system_clock3nowEv@PLT	#
.LVL23:
.LBB101:
.LBB102:
.LBB103:
.LBB104:
.LBB105:
	.file 3 "/usr/include/c++/5/chrono"
	.loc 3 150 0
	pxor	%xmm2, %xmm2	# D.11014
.LVL24:
	subq	%r12, %rax	# start, D.11012
.LVL25:
.LBE105:
.LBE104:
.LBE103:
.LBE102:
.LBE101:
	.loc 1 81 0
	movslq	%ebp, %rbp	# D.11012, D.11016
.LBB114:
.LBB115:
	.file 4 "/usr/include/x86_64-linux-gnu/bits/stdio2.h"
	.loc 4 104 0
	pxor	%xmm0, %xmm0	# D.11015
	leaq	C(%rip), %rdx	#, tmp186
.LBE115:
.LBE114:
	.loc 1 81 0
	movslq	%ebx, %rbx	# D.11012, D.11016
.LBB120:
.LBB116:
	.loc 4 104 0
	leaq	.LC5(%rip), %rsi	#,
.LBE116:
.LBE120:
.LBB121:
.LBB112:
.LBB110:
.LBB108:
.LBB106:
	.loc 3 150 0
	cvtsi2ssq	%rax, %xmm2	# D.11012, D.11014
.LBE106:
.LBE108:
.LBE110:
.LBE112:
.LBE121:
	.loc 1 81 0
	leaq	0(%rbp,%rbp,4), %rax	#, tmp191
.LBB122:
.LBB117:
	.loc 4 104 0
	movl	$1, %edi	#,
.LBE117:
.LBE122:
	.loc 1 81 0
	leaq	(%rax,%rax,4), %rax	#, tmp193
	salq	$6, %rax	#, tmp194
	addq	%rbx, %rax	# D.11016, tmp195
.LBB123:
.LBB118:
	.loc 4 104 0
	cvtss2sd	(%rdx,%rax,4), %xmm0	# C, D.11015
	movl	$1, %eax	#,
.LBE118:
.LBE123:
.LBB124:
.LBB113:
.LBB111:
.LBB109:
.LBB107:
	.loc 3 150 0
	movss	%xmm2, 12(%rsp)	# D.11014, %sfp
.LBE107:
.LBE109:
.LBE111:
.LBE113:
.LBE124:
.LBB125:
.LBB119:
	.loc 4 104 0
	call	__printf_chk@PLT	#
.LVL26:
.LBE119:
.LBE125:
.LBB126:
.LBB127:
	pxor	%xmm0, %xmm0	# D.11015
	leaq	.LC7(%rip), %rsi	#,
	movl	$1, %edi	#,
	movl	$1, %eax	#,
	cvtss2sd	12(%rsp), %xmm0	# %sfp, D.11015
	divsd	.LC6(%rip), %xmm0	#, D.11015
	call	__printf_chk@PLT	#
.LVL27:
.LBE127:
.LBE126:
	.loc 1 86 0
	addq	$16, %rsp	#,
	.cfi_remember_state
	.cfi_def_cfa_offset 32
	xorl	%eax, %eax	#
	popq	%rbx	#
	.cfi_def_cfa_offset 24
	popq	%rbp	#
	.cfi_def_cfa_offset 16
	popq	%r12	#
	.cfi_def_cfa_offset 8
.LVL28:
	ret
.L21:
	.cfi_restore_state
.LVL29:
.LBB128:
.LBB129:
	.loc 4 104 0
	leaq	.LC4(%rip), %rsi	#,
	movl	$1, %edi	#,
	xorl	%eax, %eax	#
	call	__printf_chk@PLT	#
.LVL30:
.LBE129:
.LBE128:
	.loc 1 54 0
	movl	$2, %edi	#,
	call	exit@PLT	#
.LVL31:
.L26:
.LBB130:
.LBB131:
	.loc 4 104 0
	leal	-1(%rdi), %edx	#, D.11016
	leaq	.LC3(%rip), %rsi	#,
.LVL32:
	movl	$1, %edi	#,
.LVL33:
	xorl	%eax, %eax	#
	call	__printf_chk@PLT	#
.LVL34:
.LBE131:
.LBE130:
	.loc 1 46 0
	movl	$1, %edi	#,
	call	exit@PLT	#
.LVL35:
	.cfi_endproc
.LFE311:
	.size	main, .-main
	.section	.text.unlikely
.LCOLDE8:
	.section	.text.startup
.LHOTE8:
	.globl	C
	.bss
	.align 32
	.type	C, @object
	.size	C, 13440000
C:
	.zero	13440000
	.globl	B
	.align 32
	.type	B, @object
	.size	B, 12800000
B:
	.zero	12800000
	.globl	A
	.align 32
	.type	A, @object
	.size	A, 16800000
A:
	.zero	16800000
	.section	.rodata.cst4,"aM",@progbits,4
	.align 4
.LC0:
	.long	805306368
	.section	.rodata.cst8,"aM",@progbits,8
	.align 8
.LC6:
	.long	0
	.long	1083129856
	.text
.Letext0:
	.section	.text.unlikely
.Letext_cold0:
	.file 5 "/usr/include/c++/5/type_traits"
	.file 6 "/usr/include/c++/5/cstdint"
	.file 7 "/usr/include/c++/5/ctime"
	.file 8 "<built-in>"
	.file 9 "/usr/include/x86_64-linux-gnu/c++/5/bits/c++config.h"
	.file 10 "/usr/include/c++/5/ratio"
	.file 11 "/usr/include/x86_64-linux-gnu/bits/types.h"
	.file 12 "/usr/include/x86_64-linux-gnu/bits/stdint-intn.h"
	.file 13 "/usr/include/x86_64-linux-gnu/bits/stdint-uintn.h"
	.file 14 "/usr/include/stdint.h"
	.file 15 "/usr/lib/gcc/x86_64-linux-gnu/5/include/stddef.h"
	.file 16 "/usr/include/x86_64-linux-gnu/bits/types/clock_t.h"
	.file 17 "/usr/include/x86_64-linux-gnu/bits/types/time_t.h"
	.file 18 "/usr/include/x86_64-linux-gnu/bits/types/struct_tm.h"
	.file 19 "/usr/include/time.h"
	.file 20 "/usr/include/x86_64-linux-gnu/bits/libio.h"
	.file 21 "/usr/include/stdio.h"
	.section	.note.GNU-stack,"",@progbits
